target datalayout = "e-m:e-p270:32:32-p271:32:32-p272:64:64-i64:64-i128:128-f80:128-n8:16:32:64-S128"
target triple = "x86_64-pc-linux-gnu"

%struct.H5G_loc_gc_t = type { ptr, i64, i64 }

@H5G_init_g = external global i8, align 1
@H5_libterm_g = external global i8, align 1
@.str = private unnamed_addr constant [100 x i8] c"generated/home/dtcxzyw/WorkSpace/Projects/compilers/llvm-opt-benchmark/bench/hdf5/hdf5/src/H5Gloc.c\00", align 1
@H5E_FUNC_g = external global i64, align 8
@H5E_CANTINIT_g = external global i64, align 8
@.str.1 = private unnamed_addr constant [32 x i8] c"interface initialization failed\00", align 1
@H5E_SYM_g = external global i64, align 8
@H5E_NOTFOUND_g = external global i64, align 8
@.str.29 = private unnamed_addr constant [18 x i8] c"can't find object\00", align 1
@__func__.H5G_loc_get_comment = private unnamed_addr constant [20 x i8] c"H5G_loc_get_comment\00", align 1

; Function Attrs: nounwind uwtable
define i32 @H5G_loc_get_comment(ptr noundef %0, ptr noundef %1, ptr noundef %2, i64 noundef %3, ptr noundef %4) #0 {
  %6 = alloca ptr, align 8
  %7 = alloca ptr, align 8
  %8 = alloca ptr, align 8
  %9 = alloca i64, align 8
  %10 = alloca ptr, align 8
  %11 = alloca %struct.H5G_loc_gc_t, align 8
  %12 = alloca i32, align 4
  %13 = alloca i8, align 1
  store ptr %0, ptr %6, align 8, !tbaa !9
  store ptr %1, ptr %7, align 8, !tbaa !32
  store ptr %2, ptr %8, align 8, !tbaa !32
  store i64 %3, ptr %9, align 8, !tbaa !15
  store ptr %4, ptr %10, align 8, !tbaa !56
  call void @llvm.lifetime.start.p0(i64 24, ptr %11) #7
  call void @llvm.lifetime.start.p0(i64 4, ptr %12) #7
  store i32 0, ptr %12, align 4, !tbaa !7
  call void @llvm.lifetime.start.p0(i64 1, ptr %13) #7
  store i8 0, ptr %13, align 1, !tbaa !11
  %14 = load i8, ptr @H5G_init_g, align 1, !tbaa !11, !range !13, !noundef !14
  %15 = trunc i8 %14 to i1
  br i1 %15, label %20, label %16

16:                                               ; preds = %5
  %17 = load i8, ptr @H5_libterm_g, align 1, !tbaa !11, !range !13, !noundef !14
  %18 = trunc i8 %17 to i1
  %19 = xor i1 %18, true
  br label %20

20:                                               ; preds = %16, %5
  %21 = phi i1 [ false, %5 ], [ %19, %16 ]
  %22 = xor i1 %21, true
  %23 = xor i1 %22, true
  %24 = zext i1 %23 to i32
  %25 = sext i32 %24 to i64
  %26 = call i64 @llvm.expect.i64(i64 %25, i64 0)
  %27 = icmp ne i64 %26, 0
  br i1 %27, label %28, label %51

28:                                               ; preds = %20
  store i8 1, ptr @H5G_init_g, align 1, !tbaa !11
  %29 = call i32 @H5G__init_package()
  %30 = icmp slt i32 %29, 0
  br i1 %30, label %31, label %50

31:                                               ; preds = %28
  store i8 0, ptr @H5G_init_g, align 1, !tbaa !11
  br label %32

32:                                               ; preds = %31
  br label %33

33:                                               ; preds = %32
  br label %34

34:                                               ; preds = %33
  %35 = load i64, ptr @H5E_FUNC_g, align 8, !tbaa !15
  %36 = load i64, ptr @H5E_CANTINIT_g, align 8, !tbaa !15
  %37 = call i32 (ptr, ptr, i32, i64, i64, ptr, ...) @H5E_printf_stack(ptr noundef @.str, ptr noundef @__func__.H5G_loc_get_comment, i32 noundef 981, i64 noundef %35, i64 noundef %36, ptr noundef @.str.1)
  br label %38

38:                                               ; preds = %34
  br label %39

39:                                               ; preds = %38
  store i8 1, ptr %13, align 1, !tbaa !11
  %40 = load i8, ptr %13, align 1, !tbaa !11, !range !13, !noundef !14
  %41 = trunc i8 %40 to i1
  %42 = zext i1 %41 to i8
  store i8 %42, ptr %13, align 1, !tbaa !11
  br label %43

43:                                               ; preds = %39
  br label %44

44:                                               ; preds = %43
  br label %45

45:                                               ; preds = %44
  store i32 -1, ptr %12, align 4, !tbaa !7
  br label %103

46:                                               ; No predecessors!
  br label %47

47:                                               ; preds = %46
  br label %48

48:                                               ; preds = %47
  br label %49

49:                                               ; preds = %48
  br label %50

50:                                               ; preds = %49, %28
  br label %51

51:                                               ; preds = %50, %20
  %52 = load i8, ptr @H5G_init_g, align 1, !tbaa !11, !range !13, !noundef !14
  %53 = trunc i8 %52 to i1
  br i1 %53, label %58, label %54

54:                                               ; preds = %51
  %55 = load i8, ptr @H5_libterm_g, align 1, !tbaa !11, !range !13, !noundef !14
  %56 = trunc i8 %55 to i1
  %57 = xor i1 %56, true
  br label %58

58:                                               ; preds = %54, %51
  %59 = phi i1 [ true, %51 ], [ %57, %54 ]
  %60 = xor i1 %59, true
  %61 = xor i1 %60, true
  %62 = zext i1 %61 to i32
  %63 = sext i32 %62 to i64
  %64 = call i64 @llvm.expect.i64(i64 %63, i64 1)
  %65 = icmp ne i64 %64, 0
  br i1 %65, label %66, label %104

66:                                               ; preds = %58
  %67 = load ptr, ptr %8, align 8, !tbaa !32
  %68 = getelementptr inbounds nuw %struct.H5G_loc_gc_t, ptr %11, i32 0, i32 0
  store ptr %67, ptr %68, align 8, !tbaa !72
  %69 = load i64, ptr %9, align 8, !tbaa !15
  %70 = getelementptr inbounds nuw %struct.H5G_loc_gc_t, ptr %11, i32 0, i32 1
  store i64 %69, ptr %70, align 8, !tbaa !74
  %71 = getelementptr inbounds nuw %struct.H5G_loc_gc_t, ptr %11, i32 0, i32 2
  store i64 0, ptr %71, align 8, !tbaa !75
  %72 = load ptr, ptr %6, align 8, !tbaa !9
  %73 = load ptr, ptr %7, align 8, !tbaa !32
  %74 = call i32 @H5G_traverse(ptr noundef %72, ptr noundef %73, i32 noundef 0, ptr noundef @H5G__loc_get_comment_cb, ptr noundef %11)
  %75 = icmp slt i32 %74, 0
  br i1 %75, label %76, label %95

76:                                               ; preds = %66
  br label %77

77:                                               ; preds = %76
  br label %78

78:                                               ; preds = %77
  br label %79

79:                                               ; preds = %78
  %80 = load i64, ptr @H5E_SYM_g, align 8, !tbaa !15
  %81 = load i64, ptr @H5E_NOTFOUND_g, align 8, !tbaa !15
  %82 = call i32 (ptr, ptr, i32, i64, i64, ptr, ...) @H5E_printf_stack(ptr noundef @.str, ptr noundef @__func__.H5G_loc_get_comment, i32 noundef 994, i64 noundef %80, i64 noundef %81, ptr noundef @.str.29)
  br label %83

83:                                               ; preds = %79
  br label %84

84:                                               ; preds = %83
  store i8 1, ptr %13, align 1, !tbaa !11
  %85 = load i8, ptr %13, align 1, !tbaa !11, !range !13, !noundef !14
  %86 = trunc i8 %85 to i1
  %87 = zext i1 %86 to i8
  store i8 %87, ptr %13, align 1, !tbaa !11
  br label %88

88:                                               ; preds = %84
  br label %89

89:                                               ; preds = %88
  br label %90

90:                                               ; preds = %89
  store i32 -1, ptr %12, align 4, !tbaa !7
  br label %103

91:                                               ; No predecessors!
  br label %92

92:                                               ; preds = %91
  br label %93

93:                                               ; preds = %92
  br label %94

94:                                               ; preds = %93
  br label %95

95:                                               ; preds = %94, %66
  %96 = load ptr, ptr %10, align 8, !tbaa !56
  %97 = icmp ne ptr %96, null
  br i1 %97, label %98, label %102

98:                                               ; preds = %95
  %99 = getelementptr inbounds nuw %struct.H5G_loc_gc_t, ptr %11, i32 0, i32 2
  %100 = load i64, ptr %99, align 8, !tbaa !75
  %101 = load ptr, ptr %10, align 8, !tbaa !56
  store i64 %100, ptr %101, align 8, !tbaa !15
  br label %102

102:                                              ; preds = %98, %95
  br label %103

103:                                              ; preds = %102, %90, %45
  br label %104

104:                                              ; preds = %103, %58
  %105 = load i32, ptr %12, align 4, !tbaa !7
  call void @llvm.lifetime.end.p0(i64 1, ptr %13) #7
  call void @llvm.lifetime.end.p0(i64 4, ptr %12) #7
  call void @llvm.lifetime.end.p0(i64 24, ptr %11) #7
  ret i32 %105
}