; Function Attrs: nounwind uwtable
define range(i32 -1, 1) i32 @H5G_loc_get_comment(ptr noundef %0, ptr noundef %1, ptr noundef %2, i64 noundef %3, ptr noundef writeonly captures(address_is_null) %4) local_unnamed_addr #0 {
  %6 = alloca %struct.H5G_loc_gc_t, align 8
  call void @llvm.lifetime.start.p0(i64 24, ptr nonnull %6) #9
  %7 = load i8, ptr @H5G_init_g, align 1, !tbaa !3, !range !7, !noundef !8
  %8 = trunc nuw i8 %7 to i1
  %9 = load i8, ptr @H5_libterm_g, align 1, !range !7
  %10 = trunc nuw i8 %9 to i1
  %11 = select i1 %8, i1 true, i1 %10
  br i1 %11, label %19, label %12, !prof !9

12:                                               ; preds = %5
  store i8 1, ptr @H5G_init_g, align 1, !tbaa !3
  %13 = tail call i32 @H5G__init_package() #9
  %14 = icmp slt i32 %13, 0
  br i1 %14, label %15, label %._crit_edge

._crit_edge:                                      ; preds = %12
  %.pre = load i8, ptr @H5G_init_g, align 1, !tbaa !3, !range !7
  %.pre9 = load i8, ptr @H5_libterm_g, align 1, !range !7
  %.pre10 = trunc nuw i8 %.pre to i1
  %.pre11 = trunc nuw i8 %.pre9 to i1
  br label %19

15:                                               ; preds = %12
  store i8 0, ptr @H5G_init_g, align 1, !tbaa !3
  %16 = load i64, ptr @H5E_FUNC_g, align 8, !tbaa !10
  %17 = load i64, ptr @H5E_CANTINIT_g, align 8, !tbaa !10
  %18 = tail call i32 (ptr, ptr, i32, i64, i64, ptr, ...) @H5E_printf_stack(ptr noundef nonnull @.str, ptr noundef nonnull @__func__.H5G_loc_get_comment, i32 noundef 981, i64 noundef %16, i64 noundef %17, ptr noundef nonnull @.str.1) #9
  br label %34

19:                                               ; preds = %._crit_edge, %5
  %.pre-phi12 = phi i1 [ %.pre11, %._crit_edge ], [ %10, %5 ]
  %.pre-phi = phi i1 [ %.pre10, %._crit_edge ], [ %8, %5 ]
  %20 = xor i1 %.pre-phi12, true
  %21 = select i1 %.pre-phi, i1 true, i1 %20
  br i1 %21, label %22, label %34, !prof !9

22:                                               ; preds = %19
  store ptr %2, ptr %6, align 8, !tbaa !51
  %23 = getelementptr inbounds nuw i8, ptr %6, i64 8
  store i64 %3, ptr %23, align 8, !tbaa !53
  %24 = getelementptr inbounds nuw i8, ptr %6, i64 16
  store i64 0, ptr %24, align 8, !tbaa !54
  %25 = call i32 @H5G_traverse(ptr noundef %0, ptr noundef %1, i32 noundef 0, ptr noundef nonnull @H5G__loc_get_comment_cb, ptr noundef nonnull %6) #9
  %26 = icmp slt i32 %25, 0
  br i1 %26, label %27, label %31

27:                                               ; preds = %22
  %28 = load i64, ptr @H5E_SYM_g, align 8, !tbaa !10
  %29 = load i64, ptr @H5E_NOTFOUND_g, align 8, !tbaa !10
  %30 = call i32 (ptr, ptr, i32, i64, i64, ptr, ...) @H5E_printf_stack(ptr noundef nonnull @.str, ptr noundef nonnull @__func__.H5G_loc_get_comment, i32 noundef 994, i64 noundef %28, i64 noundef %29, ptr noundef nonnull @.str.29) #9
  br label %34

31:                                               ; preds = %22
  %.not = icmp eq ptr %4, null
  br i1 %.not, label %34, label %32

32:                                               ; preds = %31
  %33 = load i64, ptr %24, align 8, !tbaa !54
  store i64 %33, ptr %4, align 8, !tbaa !10
  br label %34

34:                                               ; preds = %15, %27, %32, %31, %19
  %.0 = phi i32 [ -1, %15 ], [ -1, %27 ], [ 0, %32 ], [ 0, %31 ], [ 0, %19 ]
  call void @llvm.lifetime.end.p0(i64 24, ptr nonnull %6) #9
  ret i32 %.0
}